; Function Attrs: mustprogress nofree norecurse nosync nounwind memory(argmem: readwrite) uwtable
define internal void @_ZN2cv12cpu_baselineL11cvtScale64fEPKhmS2_mPhmNS_5Size_IiEEPv(ptr noundef readonly captures(none) %0, i64 noundef %1, ptr readnone captures(none) %2, i64 %3, ptr noundef writeonly captures(none) %4, i64 noundef %5, i64 %6, ptr noundef readonly captures(none) %7) #2 {
  %9 = load double, ptr %7, align 8, !tbaa !7
  %10 = getelementptr inbounds nuw i8, ptr %7, i64 8
  %11 = load double, ptr %10, align 8, !tbaa !7
  %.sroa.2.0.extract.shift.i = lshr i64 %6, 32
  %.sroa.2.0.extract.trunc.i = trunc nuw i64 %.sroa.2.0.extract.shift.i to i32
  %12 = lshr i64 %1, 3
  %13 = lshr i64 %5, 3
  %14 = icmp sgt i32 %.sroa.2.0.extract.trunc.i, 0
  %.sroa.0.0.extract.trunc.i = trunc i64 %6 to i32
  %15 = icmp sgt i32 %.sroa.0.0.extract.trunc.i, 0
  %or.cond.i = and i1 %15, %14
  br i1 %or.cond.i, label %.preheader.us.preheader.i, label %_ZN2cv12cpu_baseline7cvt_64fIddEEvPKT_mPT0_mNS_5Size_IiEEdd.exit

.preheader.us.preheader.i:                        ; preds = %8
  %wide.trip.count.i = and i64 %6, 2147483647
  br label %.preheader.us.i

.preheader.us.i:                                  ; preds = %._crit_edge.us.i, %.preheader.us.preheader.i
  %.01521.us.i = phi i32 [ %21, %._crit_edge.us.i ], [ 0, %.preheader.us.preheader.i ]
  %.01620.us.i = phi ptr [ %22, %._crit_edge.us.i ], [ %0, %.preheader.us.preheader.i ]
  %.01719.us.i = phi ptr [ %23, %._crit_edge.us.i ], [ %4, %.preheader.us.preheader.i ]
  br label %16

16:                                               ; preds = %16, %.preheader.us.i
  %indvars.iv.i = phi i64 [ 0, %.preheader.us.i ], [ %indvars.iv.next.i, %16 ]
  %17 = getelementptr inbounds nuw double, ptr %.01620.us.i, i64 %indvars.iv.i
  %18 = load double, ptr %17, align 8, !tbaa !7
  %19 = tail call double @llvm.fmuladd.f64(double %18, double %9, double %11)
  %20 = getelementptr inbounds nuw double, ptr %.01719.us.i, i64 %indvars.iv.i
  store double %19, ptr %20, align 8, !tbaa !7
  %indvars.iv.next.i = add nuw nsw i64 %indvars.iv.i, 1
  %exitcond.not.i = icmp eq i64 %indvars.iv.next.i, %wide.trip.count.i
  br i1 %exitcond.not.i, label %._crit_edge.us.i, label %16, !llvm.loop !141

._crit_edge.us.i:                                 ; preds = %16
  %21 = add nuw nsw i32 %.01521.us.i, 1
  %22 = getelementptr inbounds nuw double, ptr %.01620.us.i, i64 %12
  %23 = getelementptr inbounds nuw double, ptr %.01719.us.i, i64 %13
  %exitcond25.not.i = icmp eq i32 %21, %.sroa.2.0.extract.trunc.i
  br i1 %exitcond25.not.i, label %_ZN2cv12cpu_baseline7cvt_64fIddEEvPKT_mPT0_mNS_5Size_IiEEdd.exit, label %.preheader.us.i, !llvm.loop !142

_ZN2cv12cpu_baseline7cvt_64fIddEEvPKT_mPT0_mNS_5Size_IiEEdd.exit: ; preds = %._crit_edge.us.i, %8
  ret void
}